; Function Attrs: mustprogress nofree norecurse nosync nounwind willreturn memory(none) uwtable
define internal noundef double @_ZN8QuantLib12_GLOBAL__N_13f_2Edd(double noundef %_nu, double noundef %_lambda) #12 {
entry:
  %square = fmul double %_lambda, %_lambda
  %mul = fmul double %_lambda, 2.000000e+00
  %add = fadd double %_nu, 2.000000e+00
  %0 = tail call double @llvm.fmuladd.f64(double %mul, double %add, double %square)
  %1 = tail call double @llvm.fmuladd.f64(double %_nu, double %add, double %0)
  ret double %1
}